target datalayout = "e-m:e-p270:32:32-p271:32:32-p272:64:64-i64:64-i128:128-f80:128-n8:16:32:64-S128"
target triple = "x86_64-pc-linux-gnu"

%struct.JSValue = type { %union.JSValueUnion, i64 }
%union.JSValueUnion = type { double }
%struct.JSSTDFile = type { ptr, i32, i32 }

@js_std_file_class_id = internal global i32 0, align 4
@.str.41 = private unnamed_addr constant [20 x i8] c"invalid file handle\00", align 1

; Function Attrs: nounwind uwtable
define internal i64 @js_get_errno(i64 noundef %0) #0 {
  %2 = alloca i64, align 8
  store i64 %0, ptr %2, align 8
  %3 = load i64, ptr %2, align 8
  %4 = icmp eq i64 %3, -1
  br i1 %4, label %5, label %10

5:                                                ; preds = %1
  %6 = call ptr @__errno_location() #10
  %7 = load i32, ptr %6, align 4
  %8 = sub i32 0, %7
  %9 = sext i32 %8 to i64
  store i64 %9, ptr %2, align 8
  br label %10

10:                                               ; preds = %5, %1
  %11 = load i64, ptr %2, align 8
  ret i64 %11
}

; Function Attrs: nounwind uwtable
define internal { i64, i64 } @js_std_file_close(ptr noundef %0, i64 %1, i64 %2, i32 noundef %3, ptr noundef %4) #0 {
  %6 = alloca %struct.JSValue, align 8
  %7 = alloca ptr, align 8
  %8 = alloca i32, align 4
  %9 = alloca %struct.JSValue, align 8
  %10 = alloca %struct.JSValue, align 8
  %11 = alloca ptr, align 8
  %12 = alloca i32, align 4
  %13 = alloca ptr, align 8
  %14 = alloca ptr, align 8
  %15 = alloca i32, align 4
  %16 = getelementptr inbounds { i64, i64 }, ptr %10, i32 0, i32 0
  store i64 %1, ptr %16, align 8
  %17 = getelementptr inbounds { i64, i64 }, ptr %10, i32 0, i32 1
  store i64 %2, ptr %17, align 8
  store ptr %0, ptr %11, align 8
  store i32 %3, ptr %12, align 4
  store ptr %4, ptr %13, align 8
  %18 = load ptr, ptr %11, align 8
  %19 = load i32, ptr @js_std_file_class_id, align 4
  %20 = getelementptr inbounds { i64, i64 }, ptr %10, i32 0, i32 0
  %21 = load i64, ptr %20, align 8
  %22 = getelementptr inbounds { i64, i64 }, ptr %10, i32 0, i32 1
  %23 = load i64, ptr %22, align 8
  %24 = call ptr @JS_GetOpaque2(ptr noundef %18, i64 %21, i64 %23, i32 noundef %19)
  store ptr %24, ptr %14, align 8
  %25 = load ptr, ptr %14, align 8
  %26 = icmp ne ptr %25, null
  br i1 %26, label %30, label %27

27:                                               ; preds = %5
  %28 = getelementptr inbounds %struct.JSValue, ptr %9, i32 0, i32 0
  store i32 0, ptr %28, align 8
  %29 = getelementptr inbounds %struct.JSValue, ptr %9, i32 0, i32 1
  store i64 6, ptr %29, align 8
  br label %75

30:                                               ; preds = %5
  %31 = load ptr, ptr %14, align 8
  %32 = getelementptr inbounds %struct.JSSTDFile, ptr %31, i32 0, i32 0
  %33 = load ptr, ptr %32, align 8
  %34 = icmp ne ptr %33, null
  br i1 %34, label %42, label %35

35:                                               ; preds = %30
  %36 = load ptr, ptr %11, align 8
  %37 = call { i64, i64 } (ptr, ptr, ...) @JS_ThrowTypeError(ptr noundef %36, ptr noundef @.str.41)
  %38 = getelementptr inbounds { i64, i64 }, ptr %9, i32 0, i32 0
  %39 = extractvalue { i64, i64 } %37, 0
  store i64 %39, ptr %38, align 8
  %40 = getelementptr inbounds { i64, i64 }, ptr %9, i32 0, i32 1
  %41 = extractvalue { i64, i64 } %37, 1
  store i64 %41, ptr %40, align 8
  br label %75

42:                                               ; preds = %30
  %43 = load ptr, ptr %14, align 8
  %44 = getelementptr inbounds %struct.JSSTDFile, ptr %43, i32 0, i32 2
  %45 = load i32, ptr %44, align 4
  %46 = icmp ne i32 %45, 0
  br i1 %46, label %47, label %55

47:                                               ; preds = %42
  %48 = load ptr, ptr %14, align 8
  %49 = getelementptr inbounds %struct.JSSTDFile, ptr %48, i32 0, i32 0
  %50 = load ptr, ptr %49, align 8
  %51 = call i32 @pclose(ptr noundef %50)
  %52 = sext i32 %51 to i64
  %53 = call i64 @js_get_errno(i64 noundef %52)
  %54 = trunc i64 %53 to i32
  store i32 %54, ptr %15, align 4
  br label %63

55:                                               ; preds = %42
  %56 = load ptr, ptr %14, align 8
  %57 = getelementptr inbounds %struct.JSSTDFile, ptr %56, i32 0, i32 0
  %58 = load ptr, ptr %57, align 8
  %59 = call i32 @fclose(ptr noundef %58)
  %60 = sext i32 %59 to i64
  %61 = call i64 @js_get_errno(i64 noundef %60)
  %62 = trunc i64 %61 to i32
  store i32 %62, ptr %15, align 4
  br label %63

63:                                               ; preds = %55, %47
  %64 = load ptr, ptr %14, align 8
  %65 = getelementptr inbounds %struct.JSSTDFile, ptr %64, i32 0, i32 0
  store ptr null, ptr %65, align 8
  %66 = load ptr, ptr %11, align 8
  %67 = load i32, ptr %15, align 4
  store ptr %66, ptr %7, align 8
  store i32 %67, ptr %8, align 4
  %68 = load i32, ptr %8, align 4
  store i32 %68, ptr %6, align 8
  %69 = getelementptr inbounds %struct.JSValue, ptr %6, i32 0, i32 1
  store i64 0, ptr %69, align 8
  %70 = load { i64, i64 }, ptr %6, align 8
  %71 = getelementptr inbounds { i64, i64 }, ptr %9, i32 0, i32 0
  %72 = extractvalue { i64, i64 } %70, 0
  store i64 %72, ptr %71, align 8
  %73 = getelementptr inbounds { i64, i64 }, ptr %9, i32 0, i32 1
  %74 = extractvalue { i64, i64 } %70, 1
  store i64 %74, ptr %73, align 8
  br label %75

75:                                               ; preds = %63, %35, %27
  %76 = load { i64, i64 }, ptr %9, align 8
  ret { i64, i64 } %76
}