; Function Attrs: nounwind uwtable
define internal { i64, i64 } @js_std_file_close(ptr noundef %0, i64 %1, i64 %2, i32 %3, ptr nocapture readnone %4) #0 {
  %6 = load i32, ptr @js_std_file_class_id, align 4
  %7 = tail call ptr @JS_GetOpaque2(ptr noundef %0, i64 %1, i64 %2, i32 noundef %6) #29
  %.not = icmp eq ptr %7, null
  br i1 %.not, label %26, label %8

8:                                                ; preds = %5
  %9 = load ptr, ptr %7, align 8
  %.not22 = icmp eq ptr %9, null
  br i1 %.not22, label %10, label %14

10:                                               ; preds = %8
  %11 = tail call { i64, i64 } (ptr, ptr, ...) @JS_ThrowTypeError(ptr noundef %0, ptr noundef nonnull @.str.41) #29
  %12 = extractvalue { i64, i64 } %11, 0
  %.sroa.4.0.extract.shift = and i64 %12, -4294967296
  %13 = extractvalue { i64, i64 } %11, 1
  br label %26

14:                                               ; preds = %8
  %15 = getelementptr inbounds i8, ptr %7, i64 12
  %16 = load i32, ptr %15, align 4
  %.not23 = icmp eq i32 %16, 0
  br i1 %.not23, label %20, label %17

17:                                               ; preds = %14
  %18 = tail call i32 @pclose(ptr noundef nonnull %9)
  %19 = icmp eq i32 %18, -1
  br i1 %19, label %js_get_errno.exit.sink.split, label %js_get_errno.exit

20:                                               ; preds = %14
  %21 = tail call i32 @fclose(ptr noundef nonnull %9)
  %22 = icmp eq i32 %21, -1
  br i1 %22, label %js_get_errno.exit.sink.split, label %js_get_errno.exit

js_get_errno.exit.sink.split:                     ; preds = %20, %17
  %23 = tail call ptr @__errno_location() #28
  %24 = load i32, ptr %23, align 4
  %25 = sub i32 0, %24
  br label %js_get_errno.exit

js_get_errno.exit:                                ; preds = %js_get_errno.exit.sink.split, %20, %17
  %.0.in.in = phi i32 [ %18, %17 ], [ %21, %20 ], [ %25, %js_get_errno.exit.sink.split ]
  %.0.in26 = zext i32 %.0.in.in to i64
  store ptr null, ptr %7, align 8
  br label %26

26:                                               ; preds = %5, %js_get_errno.exit, %10
  %.sroa.09.0 = phi i64 [ %.0.in26, %js_get_errno.exit ], [ %12, %10 ], [ 0, %5 ]
  %.sroa.4.sroa.0.0 = phi i64 [ 0, %js_get_errno.exit ], [ %.sroa.4.0.extract.shift, %10 ], [ 0, %5 ]
  %.sroa.4.sroa.3.0 = phi i64 [ 0, %js_get_errno.exit ], [ %13, %10 ], [ 6, %5 ]
  %.sroa.09.0.insert.ext = and i64 %.sroa.09.0, 4294967295
  %.sroa.09.0.insert.insert = or disjoint i64 %.sroa.4.sroa.0.0, %.sroa.09.0.insert.ext
  %.fca.0.insert = insertvalue { i64, i64 } poison, i64 %.sroa.09.0.insert.insert, 0
  %.fca.1.insert = insertvalue { i64, i64 } %.fca.0.insert, i64 %.sroa.4.sroa.3.0, 1
  ret { i64, i64 } %.fca.1.insert
}